target datalayout = "e-m:e-p270:32:32-p271:32:32-p272:64:64-i64:64-i128:128-f80:128-n8:16:32:64-S128"
target triple = "x86_64-pc-linux-gnu"

; Function Attrs: nounwind uwtable
define internal i32 @asn1_get_nonzero_mpi(ptr noundef %0, ptr noundef %1, ptr noundef %2) #0 {
  %4 = alloca i32, align 4
  %5 = alloca ptr, align 8
  %6 = alloca ptr, align 8
  %7 = alloca ptr, align 8
  %8 = alloca i32, align 4
  %9 = alloca i32, align 4
  store ptr %0, ptr %5, align 8, !tbaa !14
  store ptr %1, ptr %6, align 8, !tbaa !8
  store ptr %2, ptr %7, align 8, !tbaa !17
  call void @llvm.lifetime.start.p0(i64 4, ptr %8) #9
  %10 = load ptr, ptr %5, align 8, !tbaa !14
  %11 = load ptr, ptr %6, align 8, !tbaa !8
  %12 = load ptr, ptr %7, align 8, !tbaa !17
  %13 = call i32 @mbedtls_asn1_get_mpi(ptr noundef %10, ptr noundef %11, ptr noundef %12)
  store i32 %13, ptr %8, align 4, !tbaa !12
  %14 = load i32, ptr %8, align 4, !tbaa !12
  %15 = icmp ne i32 %14, 0
  br i1 %15, label %16, label %18

16:                                               ; preds = %3
  %17 = load i32, ptr %8, align 4, !tbaa !12
  store i32 %17, ptr %4, align 4
  store i32 1, ptr %9, align 4
  br label %24

18:                                               ; preds = %3
  %19 = load ptr, ptr %7, align 8, !tbaa !17
  %20 = call i32 @mbedtls_mpi_cmp_int(ptr noundef %19, i64 noundef 0)
  %21 = icmp eq i32 %20, 0
  br i1 %21, label %22, label %23

22:                                               ; preds = %18
  store i32 -16512, ptr %4, align 4
  store i32 1, ptr %9, align 4
  br label %24

23:                                               ; preds = %18
  store i32 0, ptr %4, align 4
  store i32 1, ptr %9, align 4
  br label %24

24:                                               ; preds = %23, %22, %16
  call void @llvm.lifetime.end.p0(i64 4, ptr %8) #9
  %25 = load i32, ptr %4, align 4
  ret i32 %25
}